target datalayout = "e-m:e-p270:32:32-p271:32:32-p272:64:64-i64:64-i128:128-f80:128-n8:16:32:64-S128"
target triple = "x86_64-pc-linux-gnu"

%class.LogTagSet = type { ptr, i64, [5 x i32], [4 x i8], %class.LogOutputList, %class.LogDecorators, ptr }
%class.LogOutputList = type <{ [6 x ptr], i32, [4 x i8] }>
%class.LogDecorators = type { i32 }
%"class.StringDedup::Stat" = type { i64, i64, i64, i64, i64, i64, i64, i64, i64, i64, i64, i64, i64, i64, i64, i64, i64, %class.TimeInstant, %class.TimeInterval, %class.TimeInstant, %class.TimeInterval, %class.TimeInterval, %class.TimeInterval, %class.TimeInterval }
%class.TimeInstant = type { %class.CompositeCounterRepresentation }
%class.CompositeCounterRepresentation = type { %class.Representation }
%class.Representation = type { %class.PairRep }
%class.PairRep = type { i64, i64 }
%class.TimeInterval = type { %class.CompositeCounterRepresentation }

@.str.16 = private unnamed_addr constant [43 x i8] c"  %s Process: %zu/%.3fms, Idle: %zu/%.3fms\00", align 1
@.str.17 = private unnamed_addr constant [30 x i8] c"  %s Resize Table: %zu/%.3fms\00", align 1
@.str.18 = private unnamed_addr constant [31 x i8] c"  %s Cleanup Table: %zu/%.3fms\00", align 1
@_ZN16LogTagSetMappingILN6LogTag4typeE148ELS1_0ELS1_0ELS1_0ELS1_0ELS1_0EE7_tagsetE = linkonce_odr hidden global %class.LogTagSet zeroinitializer, comdat, align 8

; Function Attrs: mustprogress nounwind uwtable
define linkonce_odr hidden noundef zeroext i1 @_ZNK13LogOutputList8is_levelEN8LogLevel4typeE(ptr noundef nonnull align 8 dereferenceable(52) %0, i32 noundef %1) #1 comdat align 2 {
  %3 = alloca ptr, align 8
  %4 = alloca i32, align 4
  store ptr %0, ptr %3, align 8
  store i32 %1, ptr %4, align 4
  %5 = load ptr, ptr %3, align 8
  %6 = getelementptr inbounds %class.LogOutputList, ptr %5, i32 0, i32 0
  %7 = load i32, ptr %4, align 4
  %8 = zext i32 %7 to i64
  %9 = getelementptr inbounds [6 x ptr], ptr %6, i64 0, i64 %8
  %10 = load volatile ptr, ptr %9, align 8
  %11 = icmp ne ptr %10, null
  ret i1 %11
}

; Function Attrs: mustprogress nounwind uwtable
define linkonce_odr hidden noundef double @_ZNK14RepresentationI29CompositeElapsedCounterSourceE7secondsEv(ptr noundef nonnull align 8 dereferenceable(16) %0) #1 comdat align 2 {
  %2 = alloca ptr, align 8
  %3 = alloca %class.PairRep, align 8
  store ptr %0, ptr %2, align 8
  %4 = load ptr, ptr %2, align 8
  %5 = getelementptr inbounds %class.Representation, ptr %4, i32 0, i32 0
  call void @llvm.memcpy.p0.p0.i64(ptr align 8 %3, ptr align 8 %5, i64 16, i1 false)
  %6 = getelementptr inbounds { i64, i64 }, ptr %3, i32 0, i32 0
  %7 = load i64, ptr %6, align 8
  %8 = getelementptr inbounds { i64, i64 }, ptr %3, i32 0, i32 1
  %9 = load i64, ptr %8, align 8
  %10 = call noundef double @_ZN29CompositeElapsedCounterSource7secondsE7PairRepIllE(i64 %7, i64 %9)
  ret double %10
}

; Function Attrs: mustprogress nounwind uwtable
define linkonce_odr hidden noundef zeroext i1 @_ZNK9LogTagSet8is_levelEN8LogLevel4typeE(ptr noundef nonnull align 8 dereferenceable(112) %0, i32 noundef %1) #1 comdat align 2 {
  %3 = alloca ptr, align 8
  %4 = alloca i32, align 4
  store ptr %0, ptr %3, align 8
  store i32 %1, ptr %4, align 4
  %5 = load ptr, ptr %3, align 8
  %6 = getelementptr inbounds %class.LogTagSet, ptr %5, i32 0, i32 4
  %7 = load i32, ptr %4, align 4
  %8 = call noundef zeroext i1 @_ZNK13LogOutputList8is_levelEN8LogLevel4typeE(ptr noundef nonnull align 8 dereferenceable(52) %6, i32 noundef %7)
  ret i1 %8
}

; Function Attrs: mustprogress nounwind uwtable
define linkonce_odr hidden noundef nonnull align 8 dereferenceable(112) ptr @_ZN16LogTagSetMappingILN6LogTag4typeE148ELS1_0ELS1_0ELS1_0ELS1_0ELS1_0EE6tagsetEv() #1 comdat align 2 {
  ret ptr @_ZN16LogTagSetMappingILN6LogTag4typeE148ELS1_0ELS1_0ELS1_0ELS1_0ELS1_0EE7_tagsetE
}

; Function Attrs: mustprogress nounwind uwtable
define internal noundef double @_ZL25strdedup_elapsed_param_ms12TimeIntervalI30CompositeCounterRepresentation29CompositeElapsedCounterSourceE(i64 %0, i64 %1) #1 {
  %3 = alloca %class.TimeInterval, align 8
  %4 = getelementptr inbounds { i64, i64 }, ptr %3, i32 0, i32 0
  store i64 %0, ptr %4, align 8
  %5 = getelementptr inbounds { i64, i64 }, ptr %3, i32 0, i32 1
  store i64 %1, ptr %5, align 8
  %6 = call noundef double @_ZNK14RepresentationI29CompositeElapsedCounterSourceE7secondsEv(ptr noundef nonnull align 8 dereferenceable(16) %3)
  %7 = fmul double %6, 1.000000e+03
  ret double %7
}

; Function Attrs: mustprogress nounwind uwtable
define linkonce_odr hidden noundef zeroext i1 @_ZN7LogImplILN6LogTag4typeE148ELS1_0ELS1_0ELS1_0ELS1_0ELS1_0EE8is_levelEN8LogLevel4typeE(i32 noundef %0) #1 comdat align 2 {
  %2 = alloca i32, align 4
  store i32 %0, ptr %2, align 4
  %3 = call noundef nonnull align 8 dereferenceable(112) ptr @_ZN16LogTagSetMappingILN6LogTag4typeE148ELS1_0ELS1_0ELS1_0ELS1_0ELS1_0EE6tagsetEv()
  %4 = load i32, ptr %2, align 4
  %5 = call noundef zeroext i1 @_ZNK9LogTagSet8is_levelEN8LogLevel4typeE(ptr noundef nonnull align 8 dereferenceable(112) %3, i32 noundef %4)
  ret i1 %5
}

; Function Attrs: mustprogress nounwind uwtable
define hidden void @_ZNK11StringDedup4Stat9log_timesEPKc(ptr noundef nonnull align 8 dereferenceable(248) %0, ptr noundef %1) #1 align 2 {
  %3 = alloca ptr, align 8
  %4 = alloca ptr, align 8
  %5 = alloca %class.TimeInterval, align 8
  %6 = alloca %class.TimeInterval, align 8
  %7 = alloca %class.TimeInterval, align 8
  %8 = alloca %class.TimeInterval, align 8
  store ptr %0, ptr %3, align 8
  store ptr %1, ptr %4, align 8
  %9 = load ptr, ptr %3, align 8
  %10 = call noundef zeroext i1 @_ZN7LogImplILN6LogTag4typeE148ELS1_0ELS1_0ELS1_0ELS1_0ELS1_0EE8is_levelEN8LogLevel4typeE(i32 noundef 2)
  br i1 %10, label %12, label %11

11:                                               ; preds = %2
  br label %30

12:                                               ; preds = %2
  %13 = load ptr, ptr %4, align 8
  %14 = getelementptr inbounds %"class.StringDedup::Stat", ptr %9, i32 0, i32 14
  %15 = load i64, ptr %14, align 8
  %16 = getelementptr inbounds %"class.StringDedup::Stat", ptr %9, i32 0, i32 21
  call void @llvm.memcpy.p0.p0.i64(ptr align 8 %5, ptr align 8 %16, i64 16, i1 false)
  %17 = getelementptr inbounds { i64, i64 }, ptr %5, i32 0, i32 0
  %18 = load i64, ptr %17, align 8
  %19 = getelementptr inbounds { i64, i64 }, ptr %5, i32 0, i32 1
  %20 = load i64, ptr %19, align 8
  %21 = call noundef double @_ZL25strdedup_elapsed_param_ms12TimeIntervalI30CompositeCounterRepresentation29CompositeElapsedCounterSourceE(i64 %18, i64 %20)
  %22 = getelementptr inbounds %"class.StringDedup::Stat", ptr %9, i32 0, i32 13
  %23 = load i64, ptr %22, align 8
  %24 = getelementptr inbounds %"class.StringDedup::Stat", ptr %9, i32 0, i32 20
  call void @llvm.memcpy.p0.p0.i64(ptr align 8 %6, ptr align 8 %24, i64 16, i1 false)
  %25 = getelementptr inbounds { i64, i64 }, ptr %6, i32 0, i32 0
  %26 = load i64, ptr %25, align 8
  %27 = getelementptr inbounds { i64, i64 }, ptr %6, i32 0, i32 1
  %28 = load i64, ptr %27, align 8
  %29 = call noundef double @_ZL25strdedup_elapsed_param_ms12TimeIntervalI30CompositeCounterRepresentation29CompositeElapsedCounterSourceE(i64 %26, i64 %28)
  call void (ptr, ...) @_ZN7LogImplILN6LogTag4typeE148ELS1_0ELS1_0ELS1_0ELS1_0ELS1_0EE5writeILN8LogLevel4typeE2EEEvPKcz(ptr noundef @.str.16, ptr noundef %13, i64 noundef %15, double noundef %21, i64 noundef %23, double noundef %29)
  br label %30

30:                                               ; preds = %12, %11
  %31 = getelementptr inbounds %"class.StringDedup::Stat", ptr %9, i32 0, i32 15
  %32 = load i64, ptr %31, align 8
  %33 = icmp ugt i64 %32, 0
  br i1 %33, label %34, label %48

34:                                               ; preds = %30
  %35 = call noundef zeroext i1 @_ZN7LogImplILN6LogTag4typeE148ELS1_0ELS1_0ELS1_0ELS1_0ELS1_0EE8is_levelEN8LogLevel4typeE(i32 noundef 2)
  br i1 %35, label %37, label %36

36:                                               ; preds = %34
  br label %47

37:                                               ; preds = %34
  %38 = load ptr, ptr %4, align 8
  %39 = getelementptr inbounds %"class.StringDedup::Stat", ptr %9, i32 0, i32 15
  %40 = load i64, ptr %39, align 8
  %41 = getelementptr inbounds %"class.StringDedup::Stat", ptr %9, i32 0, i32 22
  call void @llvm.memcpy.p0.p0.i64(ptr align 8 %7, ptr align 8 %41, i64 16, i1 false)
  %42 = getelementptr inbounds { i64, i64 }, ptr %7, i32 0, i32 0
  %43 = load i64, ptr %42, align 8
  %44 = getelementptr inbounds { i64, i64 }, ptr %7, i32 0, i32 1
  %45 = load i64, ptr %44, align 8
  %46 = call noundef double @_ZL25strdedup_elapsed_param_ms12TimeIntervalI30CompositeCounterRepresentation29CompositeElapsedCounterSourceE(i64 %43, i64 %45)
  call void (ptr, ...) @_ZN7LogImplILN6LogTag4typeE148ELS1_0ELS1_0ELS1_0ELS1_0ELS1_0EE5writeILN8LogLevel4typeE2EEEvPKcz(ptr noundef @.str.17, ptr noundef %38, i64 noundef %40, double noundef %46)
  br label %47

47:                                               ; preds = %37, %36
  br label %48

48:                                               ; preds = %47, %30
  %49 = getelementptr inbounds %"class.StringDedup::Stat", ptr %9, i32 0, i32 16
  %50 = load i64, ptr %49, align 8
  %51 = icmp ugt i64 %50, 0
  br i1 %51, label %52, label %66

52:                                               ; preds = %48
  %53 = call noundef zeroext i1 @_ZN7LogImplILN6LogTag4typeE148ELS1_0ELS1_0ELS1_0ELS1_0ELS1_0EE8is_levelEN8LogLevel4typeE(i32 noundef 2)
  br i1 %53, label %55, label %54

54:                                               ; preds = %52
  br label %65

55:                                               ; preds = %52
  %56 = load ptr, ptr %4, align 8
  %57 = getelementptr inbounds %"class.StringDedup::Stat", ptr %9, i32 0, i32 16
  %58 = load i64, ptr %57, align 8
  %59 = getelementptr inbounds %"class.StringDedup::Stat", ptr %9, i32 0, i32 23
  call void @llvm.memcpy.p0.p0.i64(ptr align 8 %8, ptr align 8 %59, i64 16, i1 false)
  %60 = getelementptr inbounds { i64, i64 }, ptr %8, i32 0, i32 0
  %61 = load i64, ptr %60, align 8
  %62 = getelementptr inbounds { i64, i64 }, ptr %8, i32 0, i32 1
  %63 = load i64, ptr %62, align 8
  %64 = call noundef double @_ZL25strdedup_elapsed_param_ms12TimeIntervalI30CompositeCounterRepresentation29CompositeElapsedCounterSourceE(i64 %61, i64 %63)
  call void (ptr, ...) @_ZN7LogImplILN6LogTag4typeE148ELS1_0ELS1_0ELS1_0ELS1_0ELS1_0EE5writeILN8LogLevel4typeE2EEEvPKcz(ptr noundef @.str.18, ptr noundef %56, i64 noundef %58, double noundef %64)
  br label %65

65:                                               ; preds = %55, %54
  br label %66

66:                                               ; preds = %65, %48
  ret void
}