; Function Attrs: mustprogress nounwind uwtable
define hidden void @_ZNK11StringDedup4Stat9log_timesEPKc(ptr nocapture noundef nonnull readonly align 8 dereferenceable(248) %0, ptr noundef %1) local_unnamed_addr #2 align 2 {
  %3 = load volatile ptr, ptr getelementptr inbounds (i8, ptr @_ZN16LogTagSetMappingILN6LogTag4typeE148ELS1_0ELS1_0ELS1_0ELS1_0ELS1_0EE7_tagsetE, i64 56), align 8
  %.not11 = icmp eq ptr %3, null
  br i1 %.not11, label %15, label %4

4:                                                ; preds = %2
  %5 = getelementptr inbounds i8, ptr %0, i64 112
  %6 = load i64, ptr %5, align 8
  %7 = getelementptr inbounds i8, ptr %0, i64 200
  %.sroa.05.0.copyload = load i64, ptr %7, align 8
  %.sroa.26.0..sroa_idx = getelementptr inbounds i8, ptr %0, i64 208
  %.sroa.26.0.copyload = load i64, ptr %.sroa.26.0..sroa_idx, align 8
  %8 = tail call noundef double @_ZN29CompositeElapsedCounterSource7secondsE7PairRepIllE(i64 %.sroa.05.0.copyload, i64 %.sroa.26.0.copyload) #7
  %9 = fmul double %8, 1.000000e+03
  %10 = getelementptr inbounds i8, ptr %0, i64 104
  %11 = load i64, ptr %10, align 8
  %12 = getelementptr inbounds i8, ptr %0, i64 184
  %.sroa.03.0.copyload = load i64, ptr %12, align 8
  %.sroa.24.0..sroa_idx = getelementptr inbounds i8, ptr %0, i64 192
  %.sroa.24.0.copyload = load i64, ptr %.sroa.24.0..sroa_idx, align 8
  %13 = tail call noundef double @_ZN29CompositeElapsedCounterSource7secondsE7PairRepIllE(i64 %.sroa.03.0.copyload, i64 %.sroa.24.0.copyload) #7
  %14 = fmul double %13, 1.000000e+03
  tail call void (ptr, ...) @_ZN7LogImplILN6LogTag4typeE148ELS1_0ELS1_0ELS1_0ELS1_0ELS1_0EE5writeILN8LogLevel4typeE2EEEvPKcz(ptr noundef nonnull @.str.16, ptr noundef %1, i64 noundef %6, double noundef %9, i64 noundef %11, double noundef %14)
  br label %15

15:                                               ; preds = %2, %4
  %16 = getelementptr inbounds i8, ptr %0, i64 120
  %17 = load i64, ptr %16, align 8
  %.not = icmp eq i64 %17, 0
  br i1 %.not, label %24, label %18

18:                                               ; preds = %15
  %19 = load volatile ptr, ptr getelementptr inbounds (i8, ptr @_ZN16LogTagSetMappingILN6LogTag4typeE148ELS1_0ELS1_0ELS1_0ELS1_0ELS1_0EE7_tagsetE, i64 56), align 8
  %.not12 = icmp eq ptr %19, null
  br i1 %.not12, label %24, label %20

20:                                               ; preds = %18
  %21 = getelementptr inbounds i8, ptr %0, i64 216
  %.sroa.01.0.copyload = load i64, ptr %21, align 8
  %.sroa.22.0..sroa_idx = getelementptr inbounds i8, ptr %0, i64 224
  %.sroa.22.0.copyload = load i64, ptr %.sroa.22.0..sroa_idx, align 8
  %22 = tail call noundef double @_ZN29CompositeElapsedCounterSource7secondsE7PairRepIllE(i64 %.sroa.01.0.copyload, i64 %.sroa.22.0.copyload) #7
  %23 = fmul double %22, 1.000000e+03
  tail call void (ptr, ...) @_ZN7LogImplILN6LogTag4typeE148ELS1_0ELS1_0ELS1_0ELS1_0ELS1_0EE5writeILN8LogLevel4typeE2EEEvPKcz(ptr noundef nonnull @.str.17, ptr noundef %1, i64 noundef %17, double noundef %23)
  br label %24

24:                                               ; preds = %20, %18, %15
  %25 = getelementptr inbounds i8, ptr %0, i64 128
  %26 = load i64, ptr %25, align 8
  %.not10 = icmp eq i64 %26, 0
  br i1 %.not10, label %33, label %27

27:                                               ; preds = %24
  %28 = load volatile ptr, ptr getelementptr inbounds (i8, ptr @_ZN16LogTagSetMappingILN6LogTag4typeE148ELS1_0ELS1_0ELS1_0ELS1_0ELS1_0EE7_tagsetE, i64 56), align 8
  %.not13 = icmp eq ptr %28, null
  br i1 %.not13, label %33, label %29

29:                                               ; preds = %27
  %30 = getelementptr inbounds i8, ptr %0, i64 232
  %.sroa.0.0.copyload = load i64, ptr %30, align 8
  %.sroa.2.0..sroa_idx = getelementptr inbounds i8, ptr %0, i64 240
  %.sroa.2.0.copyload = load i64, ptr %.sroa.2.0..sroa_idx, align 8
  %31 = tail call noundef double @_ZN29CompositeElapsedCounterSource7secondsE7PairRepIllE(i64 %.sroa.0.0.copyload, i64 %.sroa.2.0.copyload) #7
  %32 = fmul double %31, 1.000000e+03
  tail call void (ptr, ...) @_ZN7LogImplILN6LogTag4typeE148ELS1_0ELS1_0ELS1_0ELS1_0ELS1_0EE5writeILN8LogLevel4typeE2EEEvPKcz(ptr noundef nonnull @.str.18, ptr noundef %1, i64 noundef %26, double noundef %32)
  br label %33

33:                                               ; preds = %29, %27, %24
  ret void
}